target datalayout = "e-m:e-p270:32:32-p271:32:32-p272:64:64-i64:64-i128:128-f80:128-n8:16:32:64-S128"
target triple = "x86_64-pc-linux-gnu"

%struct.Vec_Int_t_ = type { i32, i32, ptr }

; Function Attrs: inlinehint nounwind uwtable
define internal i32 @Vec_IntSize(ptr noundef %0) #2 {
  %2 = alloca ptr, align 8
  store ptr %0, ptr %2, align 8, !tbaa !3
  %3 = load ptr, ptr %2, align 8, !tbaa !3
  %4 = getelementptr inbounds nuw %struct.Vec_Int_t_, ptr %3, i32 0, i32 1
  %5 = load i32, ptr %4, align 4, !tbaa !22
  ret i32 %5
}

; Function Attrs: nounwind uwtable
define i32 @Vec_IntDoubleWidth(ptr noundef %0, i32 noundef %1) #0 {
  %3 = alloca ptr, align 8
  %4 = alloca i32, align 4
  %5 = alloca ptr, align 8
  %6 = alloca i32, align 4
  %7 = alloca i32, align 4
  %8 = alloca i32, align 4
  store ptr %0, ptr %3, align 8, !tbaa !3
  store i32 %1, ptr %4, align 4, !tbaa !8
  call void @llvm.lifetime.start.p0(i64 8, ptr %5) #13
  %9 = load ptr, ptr %3, align 8, !tbaa !3
  %10 = call i32 @Vec_IntSize(ptr noundef %9)
  %11 = mul nsw i32 %10, 2
  %12 = sext i32 %11 to i64
  %13 = call noalias ptr @calloc(i64 noundef %12, i64 noundef 4) #15
  store ptr %13, ptr %5, align 8, !tbaa !34
  call void @llvm.lifetime.start.p0(i64 4, ptr %6) #13
  call void @llvm.lifetime.start.p0(i64 4, ptr %7) #13
  call void @llvm.lifetime.start.p0(i64 4, ptr %8) #13
  %14 = load ptr, ptr %3, align 8, !tbaa !3
  %15 = call i32 @Vec_IntSize(ptr noundef %14)
  %16 = load i32, ptr %4, align 4, !tbaa !8
  %17 = sdiv i32 %15, %16
  store i32 %17, ptr %8, align 4, !tbaa !8
  store i32 0, ptr %6, align 4, !tbaa !8
  br label %18

18:                                               ; preds = %52, %2
  %19 = load i32, ptr %6, align 4, !tbaa !8
  %20 = load i32, ptr %8, align 4, !tbaa !8
  %21 = icmp slt i32 %19, %20
  br i1 %21, label %22, label %55

22:                                               ; preds = %18
  store i32 0, ptr %7, align 4, !tbaa !8
  br label %23

23:                                               ; preds = %48, %22
  %24 = load i32, ptr %7, align 4, !tbaa !8
  %25 = load i32, ptr %4, align 4, !tbaa !8
  %26 = icmp slt i32 %24, %25
  br i1 %26, label %27, label %51

27:                                               ; preds = %23
  %28 = load ptr, ptr %3, align 8, !tbaa !3
  %29 = getelementptr inbounds nuw %struct.Vec_Int_t_, ptr %28, i32 0, i32 2
  %30 = load ptr, ptr %29, align 8, !tbaa !15
  %31 = load i32, ptr %4, align 4, !tbaa !8
  %32 = load i32, ptr %6, align 4, !tbaa !8
  %33 = mul nsw i32 %31, %32
  %34 = load i32, ptr %7, align 4, !tbaa !8
  %35 = add nsw i32 %33, %34
  %36 = sext i32 %35 to i64
  %37 = getelementptr inbounds i32, ptr %30, i64 %36
  %38 = load i32, ptr %37, align 4, !tbaa !8
  %39 = load ptr, ptr %5, align 8, !tbaa !34
  %40 = load i32, ptr %4, align 4, !tbaa !8
  %41 = mul nsw i32 2, %40
  %42 = load i32, ptr %6, align 4, !tbaa !8
  %43 = mul nsw i32 %41, %42
  %44 = load i32, ptr %7, align 4, !tbaa !8
  %45 = add nsw i32 %43, %44
  %46 = sext i32 %45 to i64
  %47 = getelementptr inbounds i32, ptr %39, i64 %46
  store i32 %38, ptr %47, align 4, !tbaa !8
  br label %48

48:                                               ; preds = %27
  %49 = load i32, ptr %7, align 4, !tbaa !8
  %50 = add nsw i32 %49, 1
  store i32 %50, ptr %7, align 4, !tbaa !8
  br label %23, !llvm.loop !35

51:                                               ; preds = %23
  br label %52

52:                                               ; preds = %51
  %53 = load i32, ptr %6, align 4, !tbaa !8
  %54 = add nsw i32 %53, 1
  store i32 %54, ptr %6, align 4, !tbaa !8
  br label %18, !llvm.loop !36

55:                                               ; preds = %18
  %56 = load ptr, ptr %3, align 8, !tbaa !3
  %57 = getelementptr inbounds nuw %struct.Vec_Int_t_, ptr %56, i32 0, i32 2
  %58 = load ptr, ptr %57, align 8, !tbaa !15
  %59 = icmp ne ptr %58, null
  br i1 %59, label %60, label %66

60:                                               ; preds = %55
  %61 = load ptr, ptr %3, align 8, !tbaa !3
  %62 = getelementptr inbounds nuw %struct.Vec_Int_t_, ptr %61, i32 0, i32 2
  %63 = load ptr, ptr %62, align 8, !tbaa !15
  call void @free(ptr noundef %63) #13
  %64 = load ptr, ptr %3, align 8, !tbaa !3
  %65 = getelementptr inbounds nuw %struct.Vec_Int_t_, ptr %64, i32 0, i32 2
  store ptr null, ptr %65, align 8, !tbaa !15
  br label %67

66:                                               ; preds = %55
  br label %67

67:                                               ; preds = %66, %60
  %68 = load ptr, ptr %5, align 8, !tbaa !34
  %69 = load ptr, ptr %3, align 8, !tbaa !3
  %70 = getelementptr inbounds nuw %struct.Vec_Int_t_, ptr %69, i32 0, i32 2
  store ptr %68, ptr %70, align 8, !tbaa !15
  %71 = load ptr, ptr %3, align 8, !tbaa !3
  %72 = getelementptr inbounds nuw %struct.Vec_Int_t_, ptr %71, i32 0, i32 1
  %73 = load i32, ptr %72, align 4, !tbaa !22
  %74 = mul nsw i32 %73, 2
  store i32 %74, ptr %72, align 4, !tbaa !22
  %75 = load ptr, ptr %3, align 8, !tbaa !3
  %76 = getelementptr inbounds nuw %struct.Vec_Int_t_, ptr %75, i32 0, i32 1
  %77 = load i32, ptr %76, align 4, !tbaa !22
  %78 = load ptr, ptr %3, align 8, !tbaa !3
  %79 = getelementptr inbounds nuw %struct.Vec_Int_t_, ptr %78, i32 0, i32 0
  store i32 %77, ptr %79, align 8, !tbaa !23
  %80 = load i32, ptr %4, align 4, !tbaa !8
  %81 = mul nsw i32 2, %80
  call void @llvm.lifetime.end.p0(i64 4, ptr %8) #13
  call void @llvm.lifetime.end.p0(i64 4, ptr %7) #13
  call void @llvm.lifetime.end.p0(i64 4, ptr %6) #13
  call void @llvm.lifetime.end.p0(i64 8, ptr %5) #13
  ret i32 %81
}