; Function Attrs: nounwind uwtable
define noundef range(i32 0, -1) i32 @Vec_IntDoubleWidth(ptr noundef captures(none) %0, i32 noundef %1) local_unnamed_addr #0 {
  %3 = getelementptr i8, ptr %0, i64 4
  %.val28 = load i32, ptr %3, align 4, !tbaa !15
  %4 = shl nsw i32 %.val28, 1
  %5 = sext i32 %4 to i64
  %6 = tail call noalias ptr @calloc(i64 noundef %5, i64 noundef 4) #27
  %7 = sdiv i32 %.val28, %1
  %factor.op.mul30 = shl i32 %1, 1
  %8 = icmp sgt i32 %7, 0
  %9 = icmp sgt i32 %1, 0
  %or.cond = and i1 %8, %9
  br i1 %or.cond, label %.preheader.lr.ph.split.us, label %._crit_edge32

.preheader.lr.ph.split.us:                        ; preds = %2
  %10 = getelementptr inbounds nuw i8, ptr %0, i64 8
  %11 = load ptr, ptr %10, align 8, !tbaa !3
  %12 = zext nneg i32 %1 to i64
  %wide.trip.count39 = zext nneg i32 %7 to i64
  %wide.trip.count = zext nneg i32 %1 to i64
  br label %.preheader.us

.preheader.us:                                    ; preds = %._crit_edge.us, %.preheader.lr.ph.split.us
  %indvars.iv36 = phi i64 [ %indvars.iv.next37, %._crit_edge.us ], [ 0, %.preheader.lr.ph.split.us ]
  %13 = trunc nuw nsw i64 %indvars.iv36 to i32
  %factor.op.mul.reass.us = mul i32 %factor.op.mul30, %13
  %14 = mul nuw nsw i64 %indvars.iv36, %12
  %15 = sext i32 %factor.op.mul.reass.us to i64
  %invariant.gep = getelementptr inbounds nuw i32, ptr %11, i64 %14
  %invariant.gep42 = getelementptr i32, ptr %6, i64 %15
  br label %16

16:                                               ; preds = %.preheader.us, %16
  %indvars.iv = phi i64 [ 0, %.preheader.us ], [ %indvars.iv.next, %16 ]
  %gep = getelementptr inbounds nuw i32, ptr %invariant.gep, i64 %indvars.iv
  %17 = load i32, ptr %gep, align 4, !tbaa !10
  %gep43 = getelementptr i32, ptr %invariant.gep42, i64 %indvars.iv
  store i32 %17, ptr %gep43, align 4, !tbaa !10
  %indvars.iv.next = add nuw nsw i64 %indvars.iv, 1
  %exitcond.not = icmp eq i64 %indvars.iv.next, %wide.trip.count
  br i1 %exitcond.not, label %._crit_edge.us, label %16, !llvm.loop !28

._crit_edge.us:                                   ; preds = %16
  %indvars.iv.next37 = add nuw nsw i64 %indvars.iv36, 1
  %exitcond40.not = icmp eq i64 %indvars.iv.next37, %wide.trip.count39
  br i1 %exitcond40.not, label %._crit_edge32, label %.preheader.us, !llvm.loop !29

._crit_edge32:                                    ; preds = %._crit_edge.us, %2
  %18 = getelementptr inbounds nuw i8, ptr %0, i64 8
  %19 = load ptr, ptr %18, align 8, !tbaa !3
  %.not = icmp eq ptr %19, null
  br i1 %.not, label %21, label %20

20:                                               ; preds = %._crit_edge32
  tail call void @free(ptr noundef nonnull %19) #28
  %.pre = load i32, ptr %3, align 4, !tbaa !15
  %.pre41 = shl nsw i32 %.pre, 1
  br label %21

21:                                               ; preds = %._crit_edge32, %20
  %.pre-phi = phi i32 [ %4, %._crit_edge32 ], [ %.pre41, %20 ]
  store ptr %6, ptr %18, align 8, !tbaa !3
  store i32 %.pre-phi, ptr %3, align 4, !tbaa !15
  store i32 %.pre-phi, ptr %0, align 8, !tbaa !16
  ret i32 %factor.op.mul30
}